; Function Attrs: nounwind uwtable
define internal range(i32 -1, 1) i32 @H5EA__cache_sblock_notify(i32 noundef %0, ptr noundef %1) #0 {
  %3 = load i8, ptr @H5EA_init_g, align 1, !tbaa !3, !range !7, !noundef !8
  %4 = trunc nuw i8 %3 to i1
  %5 = load i8, ptr @H5_libterm_g, align 1, !range !7
  %6 = trunc nuw i8 %5 to i1
  %7 = xor i1 %6, true
  %8 = select i1 %4, i1 true, i1 %7
  br i1 %8, label %9, label %79, !prof !9

9:                                                ; preds = %2
  switch i32 %0, label %75 [
    i32 0, label %10
    i32 1, label %10
    i32 2, label %21
    i32 3, label %37
    i32 4, label %79
    i32 5, label %79
    i32 6, label %79
    i32 7, label %79
    i32 8, label %79
    i32 9, label %79
  ]

10:                                               ; preds = %9, %9
  %11 = getelementptr inbounds nuw i8, ptr %1, i64 312
  %12 = load ptr, ptr %11, align 8, !tbaa !125
  %13 = tail call i32 @H5EA__create_flush_depend(ptr noundef %12, ptr noundef %1) #6
  %14 = icmp slt i32 %13, 0
  br i1 %14, label %15, label %79

15:                                               ; preds = %10
  %16 = load i64, ptr @H5E_EARRAY_g, align 8, !tbaa !15
  %17 = load i64, ptr @H5E_CANTDEPEND_g, align 8, !tbaa !15
  %18 = getelementptr inbounds nuw i8, ptr %1, i64 280
  %19 = load i64, ptr %18, align 8, !tbaa !111
  %20 = tail call i32 (ptr, ptr, i32, i64, i64, ptr, ...) @H5E_printf_stack(ptr noundef nonnull @.str.5, ptr noundef nonnull @__func__.H5EA__cache_sblock_notify, i32 noundef 1289, i64 noundef %16, i64 noundef %17, ptr noundef nonnull @.str.35, i64 noundef %19) #6
  br label %79

21:                                               ; preds = %9
  %22 = getelementptr inbounds nuw i8, ptr %1, i64 296
  %23 = load i8, ptr %22, align 8, !tbaa !126, !range !7, !noundef !8
  %24 = trunc nuw i8 %23 to i1
  br i1 %24, label %25, label %79

25:                                               ; preds = %21
  %26 = getelementptr inbounds nuw i8, ptr %1, i64 272
  %27 = load ptr, ptr %26, align 8, !tbaa !122
  %28 = tail call i32 @H5EA__destroy_flush_depend(ptr noundef %27, ptr noundef nonnull %1) #6
  %29 = icmp slt i32 %28, 0
  br i1 %29, label %30, label %36

30:                                               ; preds = %25
  %31 = load i64, ptr @H5E_EARRAY_g, align 8, !tbaa !15
  %32 = load i64, ptr @H5E_CANTUNDEPEND_g, align 8, !tbaa !15
  %33 = getelementptr inbounds nuw i8, ptr %1, i64 280
  %34 = load i64, ptr %33, align 8, !tbaa !111
  %35 = tail call i32 (ptr, ptr, i32, i64, i64, ptr, ...) @H5E_printf_stack(ptr noundef nonnull @.str.5, ptr noundef nonnull @__func__.H5EA__cache_sblock_notify, i32 noundef 1299, i64 noundef %31, i64 noundef %32, ptr noundef nonnull @.str.36, i64 noundef %34) #6
  br label %79

36:                                               ; preds = %25
  store i8 0, ptr %22, align 8, !tbaa !126
  br label %79

37:                                               ; preds = %9
  %38 = getelementptr inbounds nuw i8, ptr %1, i64 312
  %39 = load ptr, ptr %38, align 8, !tbaa !125
  %40 = tail call i32 @H5EA__destroy_flush_depend(ptr noundef %39, ptr noundef %1) #6
  %41 = icmp slt i32 %40, 0
  br i1 %41, label %42, label %48

42:                                               ; preds = %37
  %43 = load i64, ptr @H5E_EARRAY_g, align 8, !tbaa !15
  %44 = load i64, ptr @H5E_CANTUNDEPEND_g, align 8, !tbaa !15
  %45 = getelementptr inbounds nuw i8, ptr %1, i64 280
  %46 = load i64, ptr %45, align 8, !tbaa !111
  %47 = tail call i32 (ptr, ptr, i32, i64, i64, ptr, ...) @H5E_printf_stack(ptr noundef nonnull @.str.5, ptr noundef nonnull @__func__.H5EA__cache_sblock_notify, i32 noundef 1310, i64 noundef %43, i64 noundef %44, ptr noundef nonnull @.str.37, i64 noundef %46) #6
  br label %79

48:                                               ; preds = %37
  %49 = getelementptr inbounds nuw i8, ptr %1, i64 296
  %50 = load i8, ptr %49, align 8, !tbaa !126, !range !7, !noundef !8
  %51 = trunc nuw i8 %50 to i1
  br i1 %51, label %52, label %64

52:                                               ; preds = %48
  %53 = getelementptr inbounds nuw i8, ptr %1, i64 272
  %54 = load ptr, ptr %53, align 8, !tbaa !122
  %55 = tail call i32 @H5EA__destroy_flush_depend(ptr noundef %54, ptr noundef nonnull %1) #6
  %56 = icmp slt i32 %55, 0
  br i1 %56, label %57, label %63

57:                                               ; preds = %52
  %58 = load i64, ptr @H5E_EARRAY_g, align 8, !tbaa !15
  %59 = load i64, ptr @H5E_CANTUNDEPEND_g, align 8, !tbaa !15
  %60 = getelementptr inbounds nuw i8, ptr %1, i64 280
  %61 = load i64, ptr %60, align 8, !tbaa !111
  %62 = tail call i32 (ptr, ptr, i32, i64, i64, ptr, ...) @H5E_printf_stack(ptr noundef nonnull @.str.5, ptr noundef nonnull @__func__.H5EA__cache_sblock_notify, i32 noundef 1318, i64 noundef %58, i64 noundef %59, ptr noundef nonnull @.str.36, i64 noundef %61) #6
  br label %79

63:                                               ; preds = %52
  store i8 0, ptr %49, align 8, !tbaa !126
  br label %64

64:                                               ; preds = %63, %48
  %65 = getelementptr inbounds nuw i8, ptr %1, i64 304
  %66 = load ptr, ptr %65, align 8, !tbaa !127
  %.not = icmp eq ptr %66, null
  br i1 %.not, label %79, label %67

67:                                               ; preds = %64
  %68 = tail call i32 @H5AC_proxy_entry_remove_child(ptr noundef nonnull %66, ptr noundef nonnull %1) #6
  %69 = icmp slt i32 %68, 0
  br i1 %69, label %70, label %74

70:                                               ; preds = %67
  %71 = load i64, ptr @H5E_EARRAY_g, align 8, !tbaa !15
  %72 = load i64, ptr @H5E_CANTUNDEPEND_g, align 8, !tbaa !15
  %73 = tail call i32 (ptr, ptr, i32, i64, i64, ptr, ...) @H5E_printf_stack(ptr noundef nonnull @.str.5, ptr noundef nonnull @__func__.H5EA__cache_sblock_notify, i32 noundef 1327, i64 noundef %71, i64 noundef %72, ptr noundef nonnull @.str.38) #6
  br label %79

74:                                               ; preds = %67
  store ptr null, ptr %65, align 8, !tbaa !127
  br label %79

75:                                               ; preds = %9
  %76 = load i64, ptr @H5E_EARRAY_g, align 8, !tbaa !15
  %77 = load i64, ptr @H5E_BADVALUE_g, align 8, !tbaa !15
  %78 = tail call i32 (ptr, ptr, i32, i64, i64, ptr, ...) @H5E_printf_stack(ptr noundef nonnull @.str.5, ptr noundef nonnull @__func__.H5EA__cache_sblock_notify, i32 noundef 1343, i64 noundef %76, i64 noundef %77, ptr noundef nonnull @.str.16) #6
  br label %79

79:                                               ; preds = %15, %30, %42, %57, %70, %75, %9, %9, %9, %9, %9, %9, %64, %74, %21, %36, %10, %2
  %.0 = phi i32 [ -1, %75 ], [ 0, %9 ], [ 0, %9 ], [ 0, %9 ], [ 0, %9 ], [ 0, %9 ], [ 0, %9 ], [ -1, %42 ], [ -1, %57 ], [ -1, %70 ], [ 0, %74 ], [ 0, %64 ], [ -1, %30 ], [ 0, %36 ], [ 0, %21 ], [ -1, %15 ], [ 0, %10 ], [ 0, %2 ]
  ret i32 %.0
}